target datalayout = "e-m:e-p270:32:32-p271:32:32-p272:64:64-i64:64-i128:128-f80:128-n8:16:32:64-S128"
target triple = "x86_64-pc-linux-gnu"

%struct.ULocaleData = type { i8, ptr, ptr }

@_ZZ24ulocdata_getDelimiter_77E13delimiterKeys = internal constant [4 x ptr] [ptr @.str.5, ptr @.str.6, ptr @.str.7, ptr @.str.8], align 16
@.str.9 = private unnamed_addr constant [11 x i8] c"delimiters\00", align 1

; Function Attrs: inlinehint mustprogress nounwind uwtable
define internal noundef signext i8 @_ZL9U_FAILURE10UErrorCode(i32 noundef %0) #2 {
  %2 = alloca i32, align 4
  store i32 %0, ptr %2, align 4, !tbaa !15
  %3 = load i32, ptr %2, align 4, !tbaa !15
  %4 = icmp sgt i32 %3, 0
  %5 = zext i1 %4 to i8
  ret i8 %5
}

; Function Attrs: mustprogress uwtable
define i32 @ulocdata_getDelimiter_77(ptr noundef %0, i32 noundef %1, ptr noundef %2, i32 noundef %3, ptr noundef %4) #1 {
  %6 = alloca i32, align 4
  %7 = alloca ptr, align 8
  %8 = alloca i32, align 4
  %9 = alloca ptr, align 8
  %10 = alloca i32, align 4
  %11 = alloca ptr, align 8
  %12 = alloca ptr, align 8
  %13 = alloca i32, align 4
  %14 = alloca ptr, align 8
  %15 = alloca i32, align 4
  %16 = alloca i32, align 4
  store ptr %0, ptr %7, align 8, !tbaa !23
  store i32 %1, ptr %8, align 4, !tbaa !37
  store ptr %2, ptr %9, align 8, !tbaa !35
  store i32 %3, ptr %10, align 4, !tbaa !14
  store ptr %4, ptr %11, align 8, !tbaa !22
  call void @llvm.lifetime.start.p0(i64 8, ptr %12) #9
  call void @llvm.lifetime.start.p0(i64 4, ptr %13) #9
  store i32 0, ptr %13, align 4, !tbaa !14
  call void @llvm.lifetime.start.p0(i64 8, ptr %14) #9
  store ptr null, ptr %14, align 8, !tbaa !35
  call void @llvm.lifetime.start.p0(i64 4, ptr %15) #9
  store i32 0, ptr %15, align 4, !tbaa !15
  %17 = load ptr, ptr %11, align 8, !tbaa !22
  %18 = load i32, ptr %17, align 4, !tbaa !15
  %19 = call noundef signext i8 @_ZL9U_FAILURE10UErrorCode(i32 noundef %18)
  %20 = icmp ne i8 %19, 0
  br i1 %20, label %21, label %22

21:                                               ; preds = %5
  store i32 0, ptr %6, align 4
  store i32 1, ptr %16, align 4
  br label %82

22:                                               ; preds = %5
  %23 = load ptr, ptr %7, align 8, !tbaa !23
  %24 = getelementptr inbounds nuw %struct.ULocaleData, ptr %23, i32 0, i32 1
  %25 = load ptr, ptr %24, align 8, !tbaa !29
  %26 = call ptr @ures_getByKey_77(ptr noundef %25, ptr noundef @.str.9, ptr noundef null, ptr noundef %15)
  store ptr %26, ptr %12, align 8, !tbaa !39
  %27 = load i32, ptr %15, align 4, !tbaa !15
  %28 = icmp eq i32 %27, -127
  br i1 %28, label %29, label %35

29:                                               ; preds = %22
  %30 = load ptr, ptr %7, align 8, !tbaa !23
  %31 = getelementptr inbounds nuw %struct.ULocaleData, ptr %30, i32 0, i32 0
  %32 = load i8, ptr %31, align 8, !tbaa !28
  %33 = icmp ne i8 %32, 0
  br i1 %33, label %34, label %35

34:                                               ; preds = %29
  store i32 2, ptr %15, align 4, !tbaa !15
  br label %35

35:                                               ; preds = %34, %29, %22
  %36 = load i32, ptr %15, align 4, !tbaa !15
  %37 = icmp ne i32 %36, 0
  br i1 %37, label %38, label %41

38:                                               ; preds = %35
  %39 = load i32, ptr %15, align 4, !tbaa !15
  %40 = load ptr, ptr %11, align 8, !tbaa !22
  store i32 %39, ptr %40, align 4, !tbaa !15
  br label %41

41:                                               ; preds = %38, %35
  %42 = load ptr, ptr %11, align 8, !tbaa !22
  %43 = load i32, ptr %42, align 4, !tbaa !15
  %44 = call noundef signext i8 @_ZL9U_FAILURE10UErrorCode(i32 noundef %43)
  %45 = icmp ne i8 %44, 0
  br i1 %45, label %46, label %48

46:                                               ; preds = %41
  %47 = load ptr, ptr %12, align 8, !tbaa !39
  call void @ures_close_77(ptr noundef %47)
  store i32 0, ptr %6, align 4
  store i32 1, ptr %16, align 4
  br label %82

48:                                               ; preds = %41
  %49 = load ptr, ptr %12, align 8, !tbaa !39
  %50 = load i32, ptr %8, align 4, !tbaa !37
  %51 = zext i32 %50 to i64
  %52 = getelementptr inbounds nuw [4 x ptr], ptr @_ZZ24ulocdata_getDelimiter_77E13delimiterKeys, i64 0, i64 %51
  %53 = load ptr, ptr %52, align 8, !tbaa !17
  %54 = call ptr @ures_getStringByKeyWithFallback_77(ptr noundef %49, ptr noundef %53, ptr noundef %13, ptr noundef %15)
  store ptr %54, ptr %14, align 8, !tbaa !35
  %55 = load ptr, ptr %12, align 8, !tbaa !39
  call void @ures_close_77(ptr noundef %55)
  %56 = load i32, ptr %15, align 4, !tbaa !15
  %57 = icmp eq i32 %56, -127
  br i1 %57, label %58, label %64

58:                                               ; preds = %48
  %59 = load ptr, ptr %7, align 8, !tbaa !23
  %60 = getelementptr inbounds nuw %struct.ULocaleData, ptr %59, i32 0, i32 0
  %61 = load i8, ptr %60, align 8, !tbaa !28
  %62 = icmp ne i8 %61, 0
  br i1 %62, label %63, label %64

63:                                               ; preds = %58
  store i32 2, ptr %15, align 4, !tbaa !15
  br label %64

64:                                               ; preds = %63, %58, %48
  %65 = load i32, ptr %15, align 4, !tbaa !15
  %66 = icmp ne i32 %65, 0
  br i1 %66, label %67, label %70

67:                                               ; preds = %64
  %68 = load i32, ptr %15, align 4, !tbaa !15
  %69 = load ptr, ptr %11, align 8, !tbaa !22
  store i32 %68, ptr %69, align 4, !tbaa !15
  br label %70

70:                                               ; preds = %67, %64
  %71 = load ptr, ptr %11, align 8, !tbaa !22
  %72 = load i32, ptr %71, align 4, !tbaa !15
  %73 = call noundef signext i8 @_ZL9U_FAILURE10UErrorCode(i32 noundef %72)
  %74 = icmp ne i8 %73, 0
  br i1 %74, label %75, label %76

75:                                               ; preds = %70
  store i32 0, ptr %6, align 4
  store i32 1, ptr %16, align 4
  br label %82

76:                                               ; preds = %70
  %77 = load ptr, ptr %9, align 8, !tbaa !35
  %78 = load ptr, ptr %14, align 8, !tbaa !35
  %79 = load i32, ptr %10, align 4, !tbaa !14
  %80 = call ptr @u_strncpy_77(ptr noundef %77, ptr noundef %78, i32 noundef %79)
  %81 = load i32, ptr %13, align 4, !tbaa !14
  store i32 %81, ptr %6, align 4
  store i32 1, ptr %16, align 4
  br label %82

82:                                               ; preds = %76, %75, %46, %21
  call void @llvm.lifetime.end.p0(i64 4, ptr %15) #9
  call void @llvm.lifetime.end.p0(i64 8, ptr %14) #9
  call void @llvm.lifetime.end.p0(i64 4, ptr %13) #9
  call void @llvm.lifetime.end.p0(i64 8, ptr %12) #9
  %83 = load i32, ptr %6, align 4
  ret i32 %83
}