; Function Attrs: mustprogress uwtable
define i32 @ulocdata_getDelimiter_77(ptr noundef readonly captures(none) %0, i32 noundef %1, ptr noundef %2, i32 noundef %3, ptr noundef captures(none) %4) local_unnamed_addr #1 {
  %6 = alloca i32, align 4
  %7 = alloca i32, align 4
  call void @llvm.lifetime.start.p0(i64 4, ptr nonnull %6) #13
  store i32 0, ptr %6, align 4, !tbaa !12
  call void @llvm.lifetime.start.p0(i64 4, ptr nonnull %7) #13
  store i32 0, ptr %7, align 4, !tbaa !13
  %8 = load i32, ptr %4, align 4, !tbaa !13
  %9 = icmp slt i32 %8, 1
  br i1 %9, label %10, label %39

10:                                               ; preds = %5
  %11 = getelementptr inbounds nuw i8, ptr %0, i64 8
  %12 = load ptr, ptr %11, align 8, !tbaa !19
  %13 = call ptr @ures_getByKey_77(ptr noundef %12, ptr noundef nonnull @.str.9, ptr noundef null, ptr noundef nonnull %7)
  %14 = load i32, ptr %7, align 4, !tbaa !13
  switch i32 %14, label %.thread [
    i32 -127, label %15
    i32 0, label %._crit_edge
  ]

._crit_edge:                                      ; preds = %10
  %.pre = load i32, ptr %4, align 4, !tbaa !13
  br label %19

15:                                               ; preds = %10
  %16 = load i8, ptr %0, align 8, !tbaa !18
  %.not17 = icmp eq i8 %16, 0
  br i1 %.not17, label %.thread, label %17

17:                                               ; preds = %15
  store i32 2, ptr %7, align 4, !tbaa !13
  br label %.thread

.thread:                                          ; preds = %10, %15, %17
  %18 = phi i32 [ -127, %15 ], [ 2, %17 ], [ %14, %10 ]
  store i32 %18, ptr %4, align 4, !tbaa !13
  br label %19

19:                                               ; preds = %._crit_edge, %.thread
  %20 = phi i32 [ %.pre, %._crit_edge ], [ %18, %.thread ]
  %21 = icmp slt i32 %20, 1
  br i1 %21, label %23, label %22

22:                                               ; preds = %19
  call void @ures_close_77(ptr noundef %13)
  br label %39

23:                                               ; preds = %19
  %24 = zext i32 %1 to i64
  %25 = getelementptr inbounds nuw [4 x ptr], ptr @_ZZ24ulocdata_getDelimiter_77E13delimiterKeys, i64 0, i64 %24
  %26 = load ptr, ptr %25, align 8, !tbaa !20
  %27 = call ptr @ures_getStringByKeyWithFallback_77(ptr noundef %13, ptr noundef %26, ptr noundef nonnull %6, ptr noundef nonnull %7)
  call void @ures_close_77(ptr noundef %13)
  %28 = load i32, ptr %7, align 4, !tbaa !13
  switch i32 %28, label %.thread26 [
    i32 -127, label %29
    i32 0, label %._crit_edge28
  ]

._crit_edge28:                                    ; preds = %23
  %.pre29 = load i32, ptr %4, align 4, !tbaa !13
  br label %33

29:                                               ; preds = %23
  %30 = load i8, ptr %0, align 8, !tbaa !18
  %.not20 = icmp eq i8 %30, 0
  br i1 %.not20, label %.thread26, label %31

31:                                               ; preds = %29
  store i32 2, ptr %7, align 4, !tbaa !13
  br label %.thread26

.thread26:                                        ; preds = %23, %29, %31
  %32 = phi i32 [ -127, %29 ], [ 2, %31 ], [ %28, %23 ]
  store i32 %32, ptr %4, align 4, !tbaa !13
  br label %33

33:                                               ; preds = %._crit_edge28, %.thread26
  %34 = phi i32 [ %.pre29, %._crit_edge28 ], [ %32, %.thread26 ]
  %35 = icmp slt i32 %34, 1
  br i1 %35, label %36, label %39

36:                                               ; preds = %33
  %37 = call ptr @u_strncpy_77(ptr noundef %2, ptr noundef %27, i32 noundef %3)
  %38 = load i32, ptr %6, align 4, !tbaa !12
  br label %39

39:                                               ; preds = %33, %5, %36, %22
  %.0 = phi i32 [ 0, %22 ], [ %38, %36 ], [ 0, %5 ], [ 0, %33 ]
  call void @llvm.lifetime.end.p0(i64 4, ptr nonnull %7) #13
  call void @llvm.lifetime.end.p0(i64 4, ptr nonnull %6) #13
  ret i32 %.0
}